target datalayout = "e-m:e-p270:32:32-p271:32:32-p272:64:64-i64:64-i128:128-f80:128-n8:16:32:64-S128"
target triple = "x86_64-pc-linux-gnu"

%struct.egg_handle = type { ptr, i64, i64, i32, i32, ptr, ptr, i64, ptr, i64, ptr, i64, ptr }

; Function Attrs: nounwind uwtable
define internal void @egg_free_egg_block(ptr noundef %0) #0 {
  %2 = alloca ptr, align 8
  store ptr %0, ptr %2, align 8
  %3 = load ptr, ptr %2, align 8
  call void @free(ptr noundef %3) #7
  ret void
}

; Function Attrs: nounwind uwtable
define internal void @egg_free_encrypt(ptr noundef %0) #0 {
  %2 = alloca ptr, align 8
  store ptr %0, ptr %2, align 8
  %3 = load ptr, ptr %2, align 8
  call void @free(ptr noundef %3) #7
  ret void
}

; Function Attrs: nounwind uwtable
define internal void @egg_free_egg_handle(ptr noundef %0) #0 {
  %2 = alloca ptr, align 8
  %3 = alloca i32, align 4
  store ptr %0, ptr %2, align 8
  store i32 0, ptr %3, align 4
  %4 = load ptr, ptr %2, align 8
  %5 = icmp eq ptr null, %4
  br i1 %5, label %6, label %7

6:                                                ; preds = %1
  br label %128

7:                                                ; preds = %1
  %8 = load ptr, ptr %2, align 8
  %9 = getelementptr inbounds %struct.egg_handle, ptr %8, i32 0, i32 6
  %10 = load ptr, ptr %9, align 8
  %11 = icmp ne ptr null, %10
  br i1 %11, label %12, label %18

12:                                               ; preds = %7
  %13 = load ptr, ptr %2, align 8
  %14 = getelementptr inbounds %struct.egg_handle, ptr %13, i32 0, i32 6
  %15 = load ptr, ptr %14, align 8
  call void @egg_free_encrypt(ptr noundef %15)
  %16 = load ptr, ptr %2, align 8
  %17 = getelementptr inbounds %struct.egg_handle, ptr %16, i32 0, i32 6
  store ptr null, ptr %17, align 8
  br label %18

18:                                               ; preds = %12, %7
  %19 = load ptr, ptr %2, align 8
  %20 = getelementptr inbounds %struct.egg_handle, ptr %19, i32 0, i32 8
  %21 = load ptr, ptr %20, align 8
  %22 = icmp ne ptr null, %21
  br i1 %22, label %23, label %54

23:                                               ; preds = %18
  store i32 0, ptr %3, align 4
  br label %24

24:                                               ; preds = %45, %23
  %25 = load i32, ptr %3, align 4
  %26 = zext i32 %25 to i64
  %27 = load ptr, ptr %2, align 8
  %28 = getelementptr inbounds %struct.egg_handle, ptr %27, i32 0, i32 7
  %29 = load i64, ptr %28, align 8
  %30 = icmp ult i64 %26, %29
  br i1 %30, label %31, label %48

31:                                               ; preds = %24
  %32 = load ptr, ptr %2, align 8
  %33 = getelementptr inbounds %struct.egg_handle, ptr %32, i32 0, i32 8
  %34 = load ptr, ptr %33, align 8
  %35 = load i32, ptr %3, align 4
  %36 = zext i32 %35 to i64
  %37 = getelementptr inbounds ptr, ptr %34, i64 %36
  %38 = load ptr, ptr %37, align 8
  call void @egg_free_egg_file(ptr noundef %38)
  %39 = load ptr, ptr %2, align 8
  %40 = getelementptr inbounds %struct.egg_handle, ptr %39, i32 0, i32 8
  %41 = load ptr, ptr %40, align 8
  %42 = load i32, ptr %3, align 4
  %43 = zext i32 %42 to i64
  %44 = getelementptr inbounds ptr, ptr %41, i64 %43
  store ptr null, ptr %44, align 8
  br label %45

45:                                               ; preds = %31
  %46 = load i32, ptr %3, align 4
  %47 = add i32 %46, 1
  store i32 %47, ptr %3, align 4
  br label %24

48:                                               ; preds = %24
  %49 = load ptr, ptr %2, align 8
  %50 = getelementptr inbounds %struct.egg_handle, ptr %49, i32 0, i32 8
  %51 = load ptr, ptr %50, align 8
  call void @free(ptr noundef %51) #7
  %52 = load ptr, ptr %2, align 8
  %53 = getelementptr inbounds %struct.egg_handle, ptr %52, i32 0, i32 8
  store ptr null, ptr %53, align 8
  br label %54

54:                                               ; preds = %48, %18
  %55 = load ptr, ptr %2, align 8
  %56 = getelementptr inbounds %struct.egg_handle, ptr %55, i32 0, i32 10
  %57 = load ptr, ptr %56, align 8
  %58 = icmp ne ptr null, %57
  br i1 %58, label %59, label %90

59:                                               ; preds = %54
  store i32 0, ptr %3, align 4
  br label %60

60:                                               ; preds = %81, %59
  %61 = load i32, ptr %3, align 4
  %62 = zext i32 %61 to i64
  %63 = load ptr, ptr %2, align 8
  %64 = getelementptr inbounds %struct.egg_handle, ptr %63, i32 0, i32 9
  %65 = load i64, ptr %64, align 8
  %66 = icmp ult i64 %62, %65
  br i1 %66, label %67, label %84

67:                                               ; preds = %60
  %68 = load ptr, ptr %2, align 8
  %69 = getelementptr inbounds %struct.egg_handle, ptr %68, i32 0, i32 10
  %70 = load ptr, ptr %69, align 8
  %71 = load i32, ptr %3, align 4
  %72 = zext i32 %71 to i64
  %73 = getelementptr inbounds ptr, ptr %70, i64 %72
  %74 = load ptr, ptr %73, align 8
  call void @egg_free_egg_block(ptr noundef %74)
  %75 = load ptr, ptr %2, align 8
  %76 = getelementptr inbounds %struct.egg_handle, ptr %75, i32 0, i32 10
  %77 = load ptr, ptr %76, align 8
  %78 = load i32, ptr %3, align 4
  %79 = zext i32 %78 to i64
  %80 = getelementptr inbounds ptr, ptr %77, i64 %79
  store ptr null, ptr %80, align 8
  br label %81

81:                                               ; preds = %67
  %82 = load i32, ptr %3, align 4
  %83 = add i32 %82, 1
  store i32 %83, ptr %3, align 4
  br label %60

84:                                               ; preds = %60
  %85 = load ptr, ptr %2, align 8
  %86 = getelementptr inbounds %struct.egg_handle, ptr %85, i32 0, i32 10
  %87 = load ptr, ptr %86, align 8
  call void @free(ptr noundef %87) #7
  %88 = load ptr, ptr %2, align 8
  %89 = getelementptr inbounds %struct.egg_handle, ptr %88, i32 0, i32 10
  store ptr null, ptr %89, align 8
  br label %90

90:                                               ; preds = %84, %54
  %91 = load ptr, ptr %2, align 8
  %92 = getelementptr inbounds %struct.egg_handle, ptr %91, i32 0, i32 12
  %93 = load ptr, ptr %92, align 8
  %94 = icmp ne ptr null, %93
  br i1 %94, label %95, label %126

95:                                               ; preds = %90
  store i32 0, ptr %3, align 4
  br label %96

96:                                               ; preds = %117, %95
  %97 = load i32, ptr %3, align 4
  %98 = zext i32 %97 to i64
  %99 = load ptr, ptr %2, align 8
  %100 = getelementptr inbounds %struct.egg_handle, ptr %99, i32 0, i32 11
  %101 = load i64, ptr %100, align 8
  %102 = icmp ult i64 %98, %101
  br i1 %102, label %103, label %120

103:                                              ; preds = %96
  %104 = load ptr, ptr %2, align 8
  %105 = getelementptr inbounds %struct.egg_handle, ptr %104, i32 0, i32 12
  %106 = load ptr, ptr %105, align 8
  %107 = load i32, ptr %3, align 4
  %108 = zext i32 %107 to i64
  %109 = getelementptr inbounds ptr, ptr %106, i64 %108
  %110 = load ptr, ptr %109, align 8
  call void @free(ptr noundef %110) #7
  %111 = load ptr, ptr %2, align 8
  %112 = getelementptr inbounds %struct.egg_handle, ptr %111, i32 0, i32 12
  %113 = load ptr, ptr %112, align 8
  %114 = load i32, ptr %3, align 4
  %115 = zext i32 %114 to i64
  %116 = getelementptr inbounds ptr, ptr %113, i64 %115
  store ptr null, ptr %116, align 8
  br label %117

117:                                              ; preds = %103
  %118 = load i32, ptr %3, align 4
  %119 = add i32 %118, 1
  store i32 %119, ptr %3, align 4
  br label %96

120:                                              ; preds = %96
  %121 = load ptr, ptr %2, align 8
  %122 = getelementptr inbounds %struct.egg_handle, ptr %121, i32 0, i32 12
  %123 = load ptr, ptr %122, align 8
  call void @free(ptr noundef %123) #7
  %124 = load ptr, ptr %2, align 8
  %125 = getelementptr inbounds %struct.egg_handle, ptr %124, i32 0, i32 12
  store ptr null, ptr %125, align 8
  br label %126

126:                                              ; preds = %120, %90
  %127 = load ptr, ptr %2, align 8
  call void @free(ptr noundef %127) #7
  br label %128

128:                                              ; preds = %126, %6
  ret void
}