; Function Attrs: nounwind uwtable
define internal fastcc void @egg_free_egg_handle(ptr nocapture noundef %0) unnamed_addr #1 {
  %2 = getelementptr inbounds i8, ptr %0, i64 40
  %3 = load ptr, ptr %2, align 8
  %.not = icmp eq ptr %3, null
  br i1 %.not, label %5, label %4

4:                                                ; preds = %1
  tail call void @free(ptr noundef nonnull %3) #11
  store ptr null, ptr %2, align 8
  br label %5

5:                                                ; preds = %4, %1
  %6 = getelementptr inbounds i8, ptr %0, i64 56
  %7 = load ptr, ptr %6, align 8
  %.not39 = icmp eq ptr %7, null
  br i1 %.not39, label %21, label %.preheader43

.preheader43:                                     ; preds = %5
  %8 = getelementptr inbounds i8, ptr %0, i64 48
  %9 = load i64, ptr %8, align 8
  %.not51 = icmp eq i64 %9, 0
  br i1 %.not51, label %._crit_edge, label %.lr.ph

.lr.ph:                                           ; preds = %.preheader43, %.lr.ph
  %10 = phi i64 [ %17, %.lr.ph ], [ 0, %.preheader43 ]
  %.044 = phi i32 [ %16, %.lr.ph ], [ 0, %.preheader43 ]
  %11 = load ptr, ptr %6, align 8
  %12 = getelementptr inbounds ptr, ptr %11, i64 %10
  %13 = load ptr, ptr %12, align 8
  tail call fastcc void @egg_free_egg_file(ptr noundef %13)
  %14 = load ptr, ptr %6, align 8
  %15 = getelementptr inbounds ptr, ptr %14, i64 %10
  store ptr null, ptr %15, align 8
  %16 = add i32 %.044, 1
  %17 = zext i32 %16 to i64
  %18 = load i64, ptr %8, align 8
  %19 = icmp ugt i64 %18, %17
  br i1 %19, label %.lr.ph, label %._crit_edge.loopexit

._crit_edge.loopexit:                             ; preds = %.lr.ph
  %.pre = load ptr, ptr %6, align 8
  br label %._crit_edge

._crit_edge:                                      ; preds = %._crit_edge.loopexit, %.preheader43
  %20 = phi ptr [ %.pre, %._crit_edge.loopexit ], [ %7, %.preheader43 ]
  tail call void @free(ptr noundef %20) #11
  store ptr null, ptr %6, align 8
  br label %21

21:                                               ; preds = %._crit_edge, %5
  %22 = getelementptr inbounds i8, ptr %0, i64 72
  %23 = load ptr, ptr %22, align 8
  %.not40 = icmp eq ptr %23, null
  br i1 %.not40, label %37, label %.preheader42

.preheader42:                                     ; preds = %21
  %24 = getelementptr inbounds i8, ptr %0, i64 64
  %25 = load i64, ptr %24, align 8
  %.not52 = icmp eq i64 %25, 0
  br i1 %.not52, label %._crit_edge47, label %.lr.ph46

.lr.ph46:                                         ; preds = %.preheader42, %.lr.ph46
  %26 = phi i64 [ %33, %.lr.ph46 ], [ 0, %.preheader42 ]
  %.145 = phi i32 [ %32, %.lr.ph46 ], [ 0, %.preheader42 ]
  %27 = load ptr, ptr %22, align 8
  %28 = getelementptr inbounds ptr, ptr %27, i64 %26
  %29 = load ptr, ptr %28, align 8
  tail call void @free(ptr noundef %29) #11
  %30 = load ptr, ptr %22, align 8
  %31 = getelementptr inbounds ptr, ptr %30, i64 %26
  store ptr null, ptr %31, align 8
  %32 = add i32 %.145, 1
  %33 = zext i32 %32 to i64
  %34 = load i64, ptr %24, align 8
  %35 = icmp ugt i64 %34, %33
  br i1 %35, label %.lr.ph46, label %._crit_edge47.loopexit

._crit_edge47.loopexit:                           ; preds = %.lr.ph46
  %.pre54 = load ptr, ptr %22, align 8
  br label %._crit_edge47

._crit_edge47:                                    ; preds = %._crit_edge47.loopexit, %.preheader42
  %36 = phi ptr [ %.pre54, %._crit_edge47.loopexit ], [ %23, %.preheader42 ]
  tail call void @free(ptr noundef %36) #11
  store ptr null, ptr %22, align 8
  br label %37

37:                                               ; preds = %._crit_edge47, %21
  %38 = getelementptr inbounds i8, ptr %0, i64 88
  %39 = load ptr, ptr %38, align 8
  %.not41 = icmp eq ptr %39, null
  br i1 %.not41, label %53, label %.preheader

.preheader:                                       ; preds = %37
  %40 = getelementptr inbounds i8, ptr %0, i64 80
  %41 = load i64, ptr %40, align 8
  %.not53 = icmp eq i64 %41, 0
  br i1 %.not53, label %._crit_edge50, label %.lr.ph49

.lr.ph49:                                         ; preds = %.preheader, %.lr.ph49
  %42 = phi i64 [ %49, %.lr.ph49 ], [ 0, %.preheader ]
  %.248 = phi i32 [ %48, %.lr.ph49 ], [ 0, %.preheader ]
  %43 = load ptr, ptr %38, align 8
  %44 = getelementptr inbounds ptr, ptr %43, i64 %42
  %45 = load ptr, ptr %44, align 8
  tail call void @free(ptr noundef %45) #11
  %46 = load ptr, ptr %38, align 8
  %47 = getelementptr inbounds ptr, ptr %46, i64 %42
  store ptr null, ptr %47, align 8
  %48 = add i32 %.248, 1
  %49 = zext i32 %48 to i64
  %50 = load i64, ptr %40, align 8
  %51 = icmp ugt i64 %50, %49
  br i1 %51, label %.lr.ph49, label %._crit_edge50.loopexit

._crit_edge50.loopexit:                           ; preds = %.lr.ph49
  %.pre55 = load ptr, ptr %38, align 8
  br label %._crit_edge50

._crit_edge50:                                    ; preds = %._crit_edge50.loopexit, %.preheader
  %52 = phi ptr [ %.pre55, %._crit_edge50.loopexit ], [ %39, %.preheader ]
  tail call void @free(ptr noundef %52) #11
  br label %53

53:                                               ; preds = %._crit_edge50, %37
  tail call void @free(ptr noundef nonnull %0) #11
  ret void
}